target datalayout = "e-m:e-p270:32:32-p271:32:32-p272:64:64-i64:64-i128:128-f80:128-n8:16:32:64-S128"
target triple = "x86_64-pc-linux-gnu"

%"class.lean::expr" = type { %"class.lean::object_ref" }
%"class.lean::object_ref" = type { ptr }
%"class.lean::ll_infer_type_fn" = type { %"class.lean::elab_environment", %"class.lean::type_checker::state", %"class.lean::local_ctx", ptr, ptr }
%"class.lean::elab_environment" = type { %"class.lean::object_ref" }
%"class.lean::type_checker::state" = type { %"class.lean::environment", %"class.lean::name_generator", [2 x %"class.std::unordered_map"], %"class.std::unordered_map", %"class.std::unordered_map", %"class.lean::equiv_manager", %"class.std::unordered_set" }
%"class.lean::environment" = type { %"class.lean::object_ref" }
%"class.lean::name_generator" = type <{ %"class.lean::name", i32, [4 x i8] }>
%"class.lean::name" = type { %"class.lean::object_ref" }
%"class.std::unordered_map" = type { %"class.std::_Hashtable" }
%"class.std::_Hashtable" = type { ptr, i64, %"struct.std::__detail::_Hash_node_base", i64, %"struct.std::__detail::_Prime_rehash_policy", ptr }
%"struct.std::__detail::_Hash_node_base" = type { ptr }
%"struct.std::__detail::_Prime_rehash_policy" = type { float, i64 }
%"class.lean::equiv_manager" = type <{ %"class.std::vector", %"class.std::unordered_map.6", i8, [7 x i8] }>
%"class.std::vector" = type { %"struct.std::_Vector_base" }
%"struct.std::_Vector_base" = type { %"struct.std::_Vector_base<lean::equiv_manager::node, std::allocator<lean::equiv_manager::node>>::_Vector_impl" }
%"struct.std::_Vector_base<lean::equiv_manager::node, std::allocator<lean::equiv_manager::node>>::_Vector_impl" = type { %"struct.std::_Vector_base<lean::equiv_manager::node, std::allocator<lean::equiv_manager::node>>::_Vector_impl_data" }
%"struct.std::_Vector_base<lean::equiv_manager::node, std::allocator<lean::equiv_manager::node>>::_Vector_impl_data" = type { ptr, ptr, ptr }
%"class.std::unordered_map.6" = type { %"class.std::_Hashtable.7" }
%"class.std::_Hashtable.7" = type { ptr, i64, %"struct.std::__detail::_Hash_node_base", i64, %"struct.std::__detail::_Prime_rehash_policy", ptr }
%"class.std::unordered_set" = type { %"class.std::_Hashtable.20" }
%"class.std::_Hashtable.20" = type { ptr, i64, %"struct.std::__detail::_Hash_node_base", i64, %"struct.std::__detail::_Prime_rehash_policy", ptr }
%"class.lean::local_ctx" = type { %"class.lean::object_ref" }

; Function Attrs: mustprogress uwtable
define linkonce_odr hidden void @_ZN4lean16ll_infer_type_fnclERKNS_4exprE(ptr dead_on_unwind noalias writable sret(%"class.lean::expr") align 8 %0, ptr noundef nonnull align 8 dereferenceable(424) %1, ptr noundef nonnull align 8 dereferenceable(8) %2) #0 comdat align 2 {
  %4 = alloca ptr, align 8
  %5 = alloca ptr, align 8
  %6 = alloca ptr, align 8
  store ptr %0, ptr %4, align 8
  store ptr %1, ptr %5, align 8, !tbaa !38
  store ptr %2, ptr %6, align 8, !tbaa !22
  %7 = load ptr, ptr %5, align 8
  %8 = load ptr, ptr %6, align 8, !tbaa !22
  call void @_ZN4lean16ll_infer_type_fn5inferERKNS_4exprE(ptr dead_on_unwind writable sret(%"class.lean::expr") align 8 %0, ptr noundef nonnull align 8 dereferenceable(424) %7, ptr noundef nonnull align 8 dereferenceable(8) %8)
  ret void
}

; Function Attrs: mustprogress uwtable
define hidden void @_ZN4lean13ll_infer_typeERKNS_16elab_environmentERKNS_9local_ctxERKNS_4exprE(ptr dead_on_unwind noalias writable sret(%"class.lean::expr") align 8 %0, ptr noundef nonnull align 8 dereferenceable(8) %1, ptr noundef nonnull align 8 dereferenceable(8) %2, ptr noundef nonnull align 8 dereferenceable(8) %3) #0 personality ptr @__gxx_personality_v0 {
  %5 = alloca ptr, align 8
  %6 = alloca ptr, align 8
  %7 = alloca ptr, align 8
  %8 = alloca ptr, align 8
  %9 = alloca %"class.lean::ll_infer_type_fn", align 8
  %10 = alloca ptr, align 8
  %11 = alloca i32, align 4
  store ptr %0, ptr %5, align 8
  store ptr %1, ptr %6, align 8, !tbaa !3
  store ptr %2, ptr %7, align 8, !tbaa !81
  store ptr %3, ptr %8, align 8, !tbaa !22
  call void @llvm.lifetime.start.p0(i64 424, ptr %9) #14
  %12 = load ptr, ptr %6, align 8, !tbaa !3
  %13 = load ptr, ptr %7, align 8, !tbaa !81
  call void @_ZN4lean16ll_infer_type_fnC2ERKNS_16elab_environmentERKNS_9local_ctxE(ptr noundef nonnull align 8 dereferenceable(424) %9, ptr noundef nonnull align 8 dereferenceable(8) %12, ptr noundef nonnull align 8 dereferenceable(8) %13)
  %14 = load ptr, ptr %8, align 8, !tbaa !22
  invoke void @_ZN4lean16ll_infer_type_fnclERKNS_4exprE(ptr dead_on_unwind writable sret(%"class.lean::expr") align 8 %0, ptr noundef nonnull align 8 dereferenceable(424) %9, ptr noundef nonnull align 8 dereferenceable(8) %14)
          to label %15 unwind label %16

15:                                               ; preds = %4
  call void @_ZN4lean16ll_infer_type_fnD2Ev(ptr noundef nonnull align 8 dereferenceable(424) %9) #14
  call void @llvm.lifetime.end.p0(i64 424, ptr %9) #14
  ret void

16:                                               ; preds = %4
  %17 = landingpad { ptr, i32 }
          cleanup
  %18 = extractvalue { ptr, i32 } %17, 0
  store ptr %18, ptr %10, align 8
  %19 = extractvalue { ptr, i32 } %17, 1
  store i32 %19, ptr %11, align 4
  call void @_ZN4lean16ll_infer_type_fnD2Ev(ptr noundef nonnull align 8 dereferenceable(424) %9) #14
  call void @llvm.lifetime.end.p0(i64 424, ptr %9) #14
  br label %20

20:                                               ; preds = %16
  %21 = load ptr, ptr %10, align 8
  %22 = load i32, ptr %11, align 4
  %23 = insertvalue { ptr, i32 } poison, ptr %21, 0
  %24 = insertvalue { ptr, i32 } %23, i32 %22, 1
  resume { ptr, i32 } %24
}