; Function Attrs: mustprogress uwtable
define hidden void @_ZN4lean13ll_infer_typeERKNS_16elab_environmentERKNS_9local_ctxERKNS_4exprE(ptr dead_on_unwind noalias writable sret(%"class.lean::expr") align 8 %0, ptr noundef nonnull align 8 dereferenceable(8) %1, ptr noundef nonnull align 8 dereferenceable(8) %2, ptr noundef nonnull align 8 dereferenceable(8) %3) local_unnamed_addr #0 personality ptr @__gxx_personality_v0 {
  %5 = alloca %"class.lean::ll_infer_type_fn", align 8
  call void @llvm.lifetime.start.p0(i64 424, ptr nonnull %5) #16
  call void @_ZN4lean16ll_infer_type_fnC2ERKNS_16elab_environmentERKNS_9local_ctxE(ptr noundef nonnull align 8 dereferenceable(424) %5, ptr noundef nonnull align 8 dereferenceable(8) %1, ptr noundef nonnull align 8 dereferenceable(8) %2)
  invoke void @_ZN4lean16ll_infer_type_fn5inferERKNS_4exprE(ptr dead_on_unwind writable sret(%"class.lean::expr") align 8 %0, ptr noundef nonnull align 8 dereferenceable(424) %5, ptr noundef nonnull align 8 dereferenceable(8) %3)
          to label %_ZN4lean16ll_infer_type_fnclERKNS_4exprE.exit unwind label %34

_ZN4lean16ll_infer_type_fnclERKNS_4exprE.exit:    ; preds = %4
  %6 = getelementptr inbounds nuw i8, ptr %5, i64 400
  %7 = load ptr, ptr %6, align 8, !tbaa !16
  %8 = ptrtoint ptr %7 to i64
  %9 = and i64 %8, 1
  %.not.i.i.i = icmp eq i64 %9, 0
  br i1 %.not.i.i.i, label %10, label %_ZN4lean10object_refD2Ev.exit.i

10:                                               ; preds = %_ZN4lean16ll_infer_type_fnclERKNS_4exprE.exit
  %11 = load i32, ptr %7, align 4, !tbaa !18
  %12 = icmp sgt i32 %11, 1
  br i1 %12, label %13, label %15, !prof !21

13:                                               ; preds = %10
  %14 = add nsw i32 %11, -1
  store i32 %14, ptr %7, align 4, !tbaa !18
  br label %_ZN4lean10object_refD2Ev.exit.i

15:                                               ; preds = %10
  %.not.i.i.i.i = icmp eq i32 %11, 0
  br i1 %.not.i.i.i.i, label %_ZN4lean10object_refD2Ev.exit.i, label %16

16:                                               ; preds = %15
  invoke void @lean_dec_ref_cold(ptr noundef nonnull %7)
          to label %_ZN4lean10object_refD2Ev.exit.i unwind label %17

17:                                               ; preds = %16
  %18 = landingpad { ptr, i32 }
          catch ptr null
  %19 = extractvalue { ptr, i32 } %18, 0
  call void @__clang_call_terminate(ptr %19) #17
  unreachable

_ZN4lean10object_refD2Ev.exit.i:                  ; preds = %16, %15, %13, %_ZN4lean16ll_infer_type_fnclERKNS_4exprE.exit
  %20 = getelementptr inbounds nuw i8, ptr %5, i64 8
  call void @_ZN4lean12type_checker5stateD2Ev(ptr noundef nonnull align 8 dereferenceable(392) %20) #16
  %21 = load ptr, ptr %5, align 8, !tbaa !16
  %22 = ptrtoint ptr %21 to i64
  %23 = and i64 %22, 1
  %.not.i.i1.i = icmp eq i64 %23, 0
  br i1 %.not.i.i1.i, label %24, label %_ZN4lean16ll_infer_type_fnD2Ev.exit

24:                                               ; preds = %_ZN4lean10object_refD2Ev.exit.i
  %25 = load i32, ptr %21, align 4, !tbaa !18
  %26 = icmp sgt i32 %25, 1
  br i1 %26, label %27, label %29, !prof !21

27:                                               ; preds = %24
  %28 = add nsw i32 %25, -1
  store i32 %28, ptr %21, align 4, !tbaa !18
  br label %_ZN4lean16ll_infer_type_fnD2Ev.exit

29:                                               ; preds = %24
  %.not.i.i.i2.i = icmp eq i32 %25, 0
  br i1 %.not.i.i.i2.i, label %_ZN4lean16ll_infer_type_fnD2Ev.exit, label %30

30:                                               ; preds = %29
  invoke void @lean_dec_ref_cold(ptr noundef nonnull %21)
          to label %_ZN4lean16ll_infer_type_fnD2Ev.exit unwind label %31

31:                                               ; preds = %30
  %32 = landingpad { ptr, i32 }
          catch ptr null
  %33 = extractvalue { ptr, i32 } %32, 0
  call void @__clang_call_terminate(ptr %33) #17
  unreachable

_ZN4lean16ll_infer_type_fnD2Ev.exit:              ; preds = %_ZN4lean10object_refD2Ev.exit.i, %27, %29, %30
  call void @llvm.lifetime.end.p0(i64 424, ptr nonnull %5) #16
  ret void

34:                                               ; preds = %4
  %35 = landingpad { ptr, i32 }
          cleanup
  call void @_ZN4lean16ll_infer_type_fnD2Ev(ptr noundef nonnull align 8 dereferenceable(424) %5) #16
  call void @llvm.lifetime.end.p0(i64 424, ptr nonnull %5) #16
  resume { ptr, i32 } %35
}